; ModuleID = '46/1817.c'
source_filename = "46/1817.c"
target datalayout = "e-m:e-p270:32:32-p271:32:32-p272:64:64-i64:64-f80:128-n8:16:32:64-S128"
target triple = "x86_64-pc-linux-gnu"

@.str = private unnamed_addr constant [6 x i8] c"%d %d\00", align 1
@.str.1 = private unnamed_addr constant [3 x i8] c"%d\00", align 1
@.str.2 = private unnamed_addr constant [4 x i8] c"%d\0A\00", align 1

; Function Attrs: noinline nounwind uwtable
define dso_local i32 @main() #0 {
  %1 = alloca i32, align 4
  %2 = alloca i32, align 4
  %3 = alloca i32, align 4
  %4 = alloca [100 x [100 x i32]], align 16
  %5 = alloca i32, align 4
  %6 = alloca i32, align 4
  %7 = alloca i32, align 4
  store i32 0, i32* %1, align 4
  store i32 0, i32* %7, align 4
  %8 = call i32 (i8*, ...) @__isoc99_scanf(i8* getelementptr inbounds ([6 x i8], [6 x i8]* @.str, i64 0, i64 0), i32* %2, i32* %3)
  store i32 0, i32* %5, align 4
  br label %9

9:                                                ; preds = %30, %0
  %10 = load i32, i32* %5, align 4
  %11 = load i32, i32* %2, align 4
  %12 = icmp slt i32 %10, %11
  br i1 %12, label %13, label %33

13:                                               ; preds = %9
  store i32 0, i32* %6, align 4
  br label %14

14:                                               ; preds = %26, %13
  %15 = load i32, i32* %6, align 4
  %16 = load i32, i32* %3, align 4
  %17 = icmp slt i32 %15, %16
  br i1 %17, label %18, label %29

18:                                               ; preds = %14
  %19 = load i32, i32* %5, align 4
  %20 = sext i32 %19 to i64
  %21 = getelementptr inbounds [100 x [100 x i32]], [100 x [100 x i32]]* %4, i64 0, i64 %20
  %22 = load i32, i32* %6, align 4
  %23 = sext i32 %22 to i64
  %24 = getelementptr inbounds [100 x i32], [100 x i32]* %21, i64 0, i64 %23
  %25 = call i32 (i8*, ...) @__isoc99_scanf(i8* getelementptr inbounds ([3 x i8], [3 x i8]* @.str.1, i64 0, i64 0), i32* %24)
  br label %26

26:                                               ; preds = %18
  %27 = load i32, i32* %6, align 4
  %28 = add nsw i32 %27, 1
  store i32 %28, i32* %6, align 4
  br label %14

29:                                               ; preds = %14
  br label %30

30:                                               ; preds = %29
  %31 = load i32, i32* %5, align 4
  %32 = add nsw i32 %31, 1
  store i32 %32, i32* %5, align 4
  br label %9

33:                                               ; preds = %9
  store i32 0, i32* %5, align 4
  br label %34

34:                                               ; preds = %173, %33
  %35 = load i32, i32* %7, align 4
  %36 = load i32, i32* %2, align 4
  %37 = load i32, i32* %3, align 4
  %38 = mul nsw i32 %36, %37
  %39 = icmp slt i32 %35, %38
  br i1 %39, label %40, label %176

40:                                               ; preds = %34
  %41 = load i32, i32* %5, align 4
  store i32 %41, i32* %6, align 4
  br label %42

42:                                               ; preds = %68, %40
  %43 = load i32, i32* %6, align 4
  %44 = load i32, i32* %3, align 4
  %45 = load i32, i32* %5, align 4
  %46 = sub nsw i32 %44, %45
  %47 = icmp slt i32 %43, %46
  br i1 %47, label %48, label %54

48:                                               ; preds = %42
  %49 = load i32, i32* %7, align 4
  %50 = load i32, i32* %2, align 4
  %51 = load i32, i32* %3, align 4
  %52 = mul nsw i32 %50, %51
  %53 = icmp slt i32 %49, %52
  br label %54

54:                                               ; preds = %48, %42
  %55 = phi i1 [ false, %42 ], [ %53, %48 ]
  br i1 %55, label %56, label %71

56:                                               ; preds = %54
  %57 = load i32, i32* %5, align 4
  %58 = add nsw i32 0, %57
  %59 = sext i32 %58 to i64
  %60 = getelementptr inbounds [100 x [100 x i32]], [100 x [100 x i32]]* %4, i64 0, i64 %59
  %61 = load i32, i32* %6, align 4
  %62 = sext i32 %61 to i64
  %63 = getelementptr inbounds [100 x i32], [100 x i32]* %60, i64 0, i64 %62
  %64 = load i32, i32* %63, align 4
  %65 = call i32 (i8*, ...) @printf(i8* getelementptr inbounds ([4 x i8], [4 x i8]* @.str.2, i64 0, i64 0), i32 %64)
  %66 = load i32, i32* %7, align 4
  %67 = add nsw i32 %66, 1
  store i32 %67, i32* %7, align 4
  br label %68

68:                                               ; preds = %56
  %69 = load i32, i32* %6, align 4
  %70 = add nsw i32 %69, 1
  store i32 %70, i32* %6, align 4
  br label %42

71:                                               ; preds = %54
  %72 = load i32, i32* %5, align 4
  %73 = add nsw i32 1, %72
  store i32 %73, i32* %6, align 4
  br label %74

74:                                               ; preds = %102, %71
  %75 = load i32, i32* %6, align 4
  %76 = load i32, i32* %2, align 4
  %77 = load i32, i32* %5, align 4
  %78 = sub nsw i32 %76, %77
  %79 = icmp slt i32 %75, %78
  br i1 %79, label %80, label %86

80:                                               ; preds = %74
  %81 = load i32, i32* %7, align 4
  %82 = load i32, i32* %2, align 4
  %83 = load i32, i32* %3, align 4
  %84 = mul nsw i32 %82, %83
  %85 = icmp slt i32 %81, %84
  br label %86

86:                                               ; preds = %80, %74
  %87 = phi i1 [ false, %74 ], [ %85, %80 ]
  br i1 %87, label %88, label %105

88:                                               ; preds = %86
  %89 = load i32, i32* %6, align 4
  %90 = sext i32 %89 to i64
  %91 = getelementptr inbounds [100 x [100 x i32]], [100 x [100 x i32]]* %4, i64 0, i64 %90
  %92 = load i32, i32* %3, align 4
  %93 = sub nsw i32 %92, 1
  %94 = load i32, i32* %5, align 4
  %95 = sub nsw i32 %93, %94
  %96 = sext i32 %95 to i64
  %97 = getelementptr inbounds [100 x i32], [100 x i32]* %91, i64 0, i64 %96
  %98 = load i32, i32* %97, align 4
  %99 = call i32 (i8*, ...) @printf(i8* getelementptr inbounds ([4 x i8], [4 x i8]* @.str.2, i64 0, i64 0), i32 %98)
  %100 = load i32, i32* %7, align 4
  %101 = add nsw i32 %100, 1
  store i32 %101, i32* %7, align 4
  br label %102

102:                                              ; preds = %88
  %103 = load i32, i32* %6, align 4
  %104 = add nsw i32 %103, 1
  store i32 %104, i32* %6, align 4
  br label %74

105:                                              ; preds = %86
  %106 = load i32, i32* %3, align 4
  %107 = sub nsw i32 %106, 2
  %108 = load i32, i32* %5, align 4
  %109 = sub nsw i32 %107, %108
  store i32 %109, i32* %6, align 4
  br label %110

110:                                              ; preds = %137, %105
  %111 = load i32, i32* %6, align 4
  %112 = load i32, i32* %5, align 4
  %113 = add nsw i32 0, %112
  %114 = icmp sge i32 %111, %113
  br i1 %114, label %115, label %121

115:                                              ; preds = %110
  %116 = load i32, i32* %7, align 4
  %117 = load i32, i32* %2, align 4
  %118 = load i32, i32* %3, align 4
  %119 = mul nsw i32 %117, %118
  %120 = icmp slt i32 %116, %119
  br label %121

121:                                              ; preds = %115, %110
  %122 = phi i1 [ false, %110 ], [ %120, %115 ]
  br i1 %122, label %123, label %140

123:                                              ; preds = %121
  %124 = load i32, i32* %2, align 4
  %125 = sub nsw i32 %124, 1
  %126 = load i32, i32* %5, align 4
  %127 = sub nsw i32 %125, %126
  %128 = sext i32 %127 to i64
  %129 = getelementptr inbounds [100 x [100 x i32]], [100 x [100 x i32]]* %4, i64 0, i64 %128
  %130 = load i32, i32* %6, align 4
  %131 = sext i32 %130 to i64
  %132 = getelementptr inbounds [100 x i32], [100 x i32]* %129, i64 0, i64 %131
  %133 = load i32, i32* %132, align 4
  %134 = call i32 (i8*, ...) @printf(i8* getelementptr inbounds ([4 x i8], [4 x i8]* @.str.2, i64 0, i64 0), i32 %133)
  %135 = load i32, i32* %7, align 4
  %136 = add nsw i32 %135, 1
  store i32 %136, i32* %7, align 4
  br label %137

137:                                              ; preds = %123
  %138 = load i32, i32* %6, align 4
  %139 = sub nsw i32 %138, 1
  store i32 %139, i32* %6, align 4
  br label %110

140:                                              ; preds = %121
  %141 = load i32, i32* %2, align 4
  %142 = sub nsw i32 %141, 2
  %143 = load i32, i32* %5, align 4
  %144 = sub nsw i32 %142, %143
  store i32 %144, i32* %6, align 4
  br label %145

145:                                              ; preds = %169, %140
  %146 = load i32, i32* %6, align 4
  %147 = load i32, i32* %5, align 4
  %148 = add nsw i32 %147, 1
  %149 = icmp sge i32 %146, %148
  br i1 %149, label %150, label %156

150:                                              ; preds = %145
  %151 = load i32, i32* %7, align 4
  %152 = load i32, i32* %2, align 4
  %153 = load i32, i32* %3, align 4
  %154 = mul nsw i32 %152, %153
  %155 = icmp slt i32 %151, %154
  br label %156

156:                                              ; preds = %150, %145
  %157 = phi i1 [ false, %145 ], [ %155, %150 ]
  br i1 %157, label %158, label %172

158:                                              ; preds = %156
  %159 = load i32, i32* %6, align 4
  %160 = sext i32 %159 to i64
  %161 = getelementptr inbounds [100 x [100 x i32]], [100 x [100 x i32]]* %4, i64 0, i64 %160
  %162 = load i32, i32* %5, align 4
  %163 = sext i32 %162 to i64
  %164 = getelementptr inbounds [100 x i32], [100 x i32]* %161, i64 0, i64 %163
  %165 = load i32, i32* %164, align 4
  %166 = call i32 (i8*, ...) @printf(i8* getelementptr inbounds ([4 x i8], [4 x i8]* @.str.2, i64 0, i64 0), i32 %165)
  %167 = load i32, i32* %7, align 4
  %168 = add nsw i32 %167, 1
  store i32 %168, i32* %7, align 4
  br label %169

169:                                              ; preds = %158
  %170 = load i32, i32* %6, align 4
  %171 = sub nsw i32 %170, 1
  store i32 %171, i32* %6, align 4
  br label %145

172:                                              ; preds = %156
  br label %173

173:                                              ; preds = %172
  %174 = load i32, i32* %5, align 4
  %175 = add nsw i32 %174, 1
  store i32 %175, i32* %5, align 4
  br label %34

176:                                              ; preds = %34
  ret i32 0
}

declare dso_local i32 @__isoc99_scanf(i8*, ...) #1

declare dso_local i32 @printf(i8*, ...) #1


!llvm.module.flags = !{!0}
!llvm.ident = !{!1}

!0 = !{i32 1, !"wchar_size", i32 4}
!1 = !{!"clang version 10.0.0-4ubuntu1 "}
